; Function Attrs: mustprogress uwtable
define void @_ZNK32pxrInternal_v0_24__pxrReserved__15TfDiagnosticMgr11ErrorHelper4PostERKNSt7__cxx1112basic_stringIcSt11char_traitsIcESaIcEEE(ptr noundef nonnull align 8 dereferenceable(64) %0, ptr noundef nonnull align 8 dereferenceable(32) %1) local_unnamed_addr #0 align 2 personality ptr @__gxx_personality_v0 {
  %3 = alloca %"class.std::any", align 8
  %4 = load atomic i64, ptr @_ZN32pxrInternal_v0_24__pxrReserved__11TfSingletonINS_15TfDiagnosticMgrEE9_instanceE seq_cst, align 8
  %.0.i.i.i = inttoptr i64 %4 to ptr
  %.not.i.i = icmp eq i64 %4, 0
  br i1 %.not.i.i, label %5, label %_ZN32pxrInternal_v0_24__pxrReserved__15TfDiagnosticMgr11GetInstanceEv.exit

5:                                                ; preds = %2
  %6 = tail call noundef ptr @_ZN32pxrInternal_v0_24__pxrReserved__11TfSingletonINS_15TfDiagnosticMgrEE15_CreateInstanceERSt6atomicIPS1_E(ptr noundef nonnull align 8 dereferenceable(8) @_ZN32pxrInternal_v0_24__pxrReserved__11TfSingletonINS_15TfDiagnosticMgrEE9_instanceE)
  br label %_ZN32pxrInternal_v0_24__pxrReserved__15TfDiagnosticMgr11GetInstanceEv.exit

_ZN32pxrInternal_v0_24__pxrReserved__15TfDiagnosticMgr11GetInstanceEv.exit: ; preds = %2, %5
  %.0.i.i = phi ptr [ %.0.i.i.i, %2 ], [ %6, %5 ]
  %7 = getelementptr inbounds nuw i8, ptr %0, i64 40
  %.sroa.0.0.copyload = load ptr, ptr %7, align 8
  %.sroa.2.0..sroa_idx = getelementptr inbounds nuw i8, ptr %0, i64 48
  %.sroa.2.0.copyload = load i32, ptr %.sroa.2.0..sroa_idx, align 8
  %8 = getelementptr inbounds nuw i8, ptr %0, i64 56
  %9 = load ptr, ptr %8, align 8
  call void @llvm.memset.p0.i64(ptr noundef nonnull align 8 dereferenceable(16) %3, i8 0, i64 16, i1 false)
  invoke void @_ZN32pxrInternal_v0_24__pxrReserved__15TfDiagnosticMgr9PostErrorENS_6TfEnumEPKcRKNS_13TfCallContextERKNSt7__cxx1112basic_stringIcSt11char_traitsIcESaIcEEESt3anyb(ptr noundef nonnull align 8 dereferenceable(481) %.0.i.i, ptr %.sroa.0.0.copyload, i32 %.sroa.2.0.copyload, ptr noundef %9, ptr noundef nonnull align 8 dereferenceable(33) %0, ptr noundef nonnull align 8 dereferenceable(32) %1, ptr noundef nonnull %3, i1 noundef zeroext false)
          to label %10 unwind label %16

10:                                               ; preds = %_ZN32pxrInternal_v0_24__pxrReserved__15TfDiagnosticMgr11GetInstanceEv.exit
  %11 = load ptr, ptr %3, align 8
  %.not.i.i3 = icmp eq ptr %11, null
  br i1 %.not.i.i3, label %_ZNSt3anyD2Ev.exit, label %12

12:                                               ; preds = %10
  invoke void %11(i32 noundef 3, ptr noundef nonnull align 8 dereferenceable(16) %3, ptr noundef null)
          to label %_ZNSt3anyD2Ev.exit unwind label %13

13:                                               ; preds = %12
  %14 = landingpad { ptr, i32 }
          catch ptr null
  %15 = extractvalue { ptr, i32 } %14, 0
  call void @__clang_call_terminate(ptr %15) #30
  unreachable

_ZNSt3anyD2Ev.exit:                               ; preds = %12, %10
  ret void

16:                                               ; preds = %_ZN32pxrInternal_v0_24__pxrReserved__15TfDiagnosticMgr11GetInstanceEv.exit
  %17 = landingpad { ptr, i32 }
          cleanup
  call void @_ZNSt3anyD2Ev(ptr noundef nonnull align 8 dereferenceable(16) %3) #23
  resume { ptr, i32 } %17
}